target datalayout = "e-m:e-p270:32:32-p271:32:32-p272:64:64-i64:64-i128:128-f80:128-n8:16:32:64-S128"
target triple = "x86_64-pc-linux-gnu"

%struct._zend_array = type { %struct._zend_refcounted_h, %union.anon.6, i32, %union.anon.8, i32, i32, i32, i32, i64, ptr }
%struct._zend_refcounted_h = type { i32, %union.anon }
%union.anon = type { i32 }
%union.anon.6 = type { i32 }
%union.anon.8 = type { ptr }
%struct._zval_struct = type { %union._zend_value, %union.anon.0, %union.anon.3 }
%union._zend_value = type { i64 }
%union.anon.0 = type { i32 }
%union.anon.3 = type { i32 }
%struct._zend_generator = type { %struct._zend_object, ptr, ptr, %struct._zval_struct, %struct._zval_struct, %struct._zval_struct, ptr, i64, %struct._zval_struct, %struct._zend_generator_node, %struct._zend_execute_data, ptr, i8 }
%struct._zend_object = type { %struct._zend_refcounted_h, i32, i32, ptr, ptr, ptr, [1 x %struct._zval_struct] }
%struct._zend_generator_node = type { ptr, i32, %union.anon.4, %union.anon.5 }
%union.anon.4 = type { ptr }
%union.anon.5 = type { ptr }
%struct._zend_execute_data = type { ptr, ptr, ptr, ptr, %struct._zval_struct, ptr, ptr, ptr, ptr }
%struct.anon.1 = type { i8, i8, %union.anon.2 }
%union.anon.2 = type { i16 }

; Function Attrs: alwaysinline nounwind uwtable
define internal zeroext i8 @zval_get_type(ptr noundef %0) #2 {
  %2 = alloca ptr, align 8
  store ptr %0, ptr %2, align 8, !tbaa !36
  %3 = load ptr, ptr %2, align 8, !tbaa !36
  %4 = getelementptr inbounds nuw %struct._zval_struct, ptr %3, i32 0, i32 1
  %5 = getelementptr inbounds nuw %struct.anon.1, ptr %4, i32 0, i32 0
  %6 = load i8, ptr %5, align 8, !tbaa !26
  ret i8 %6
}

; Function Attrs: inlinehint nounwind uwtable
define internal zeroext i1 @check_node_running_in_fiber(ptr noundef %0) #9 {
  %2 = alloca i1, align 1
  %3 = alloca ptr, align 8
  %4 = alloca ptr, align 8
  %5 = alloca ptr, align 8
  %6 = alloca i32, align 4
  %7 = alloca i64, align 8
  %8 = alloca ptr, align 8
  %9 = alloca i32, align 4
  store ptr %0, ptr %3, align 8, !tbaa !4
  %10 = load ptr, ptr %3, align 8, !tbaa !4
  %11 = getelementptr inbounds nuw %struct._zend_generator, ptr %10, i32 0, i32 1
  %12 = load ptr, ptr %11, align 8, !tbaa !30
  %13 = icmp ne ptr %12, null
  call void @llvm.assume(i1 %13)
  %14 = load ptr, ptr %3, align 8, !tbaa !4
  %15 = getelementptr inbounds nuw %struct._zend_generator, ptr %14, i32 0, i32 12
  %16 = load i8, ptr %15, align 8, !tbaa !81
  %17 = zext i8 %16 to i32
  %18 = and i32 %17, 16
  %19 = icmp ne i32 %18, 0
  %20 = xor i1 %19, true
  %21 = xor i1 %20, true
  %22 = zext i1 %21 to i32
  %23 = sext i32 %22 to i64
  %24 = call i64 @llvm.expect.i64(i64 %23, i64 1)
  %25 = icmp ne i64 %24, 0
  br i1 %25, label %26, label %27

26:                                               ; preds = %1
  store i1 true, ptr %2, align 1
  br label %108

27:                                               ; preds = %1
  %28 = load ptr, ptr %3, align 8, !tbaa !4
  %29 = getelementptr inbounds nuw %struct._zend_generator, ptr %28, i32 0, i32 9
  %30 = getelementptr inbounds nuw %struct._zend_generator_node, ptr %29, i32 0, i32 1
  %31 = load i32, ptr %30, align 8, !tbaa !109
  %32 = icmp eq i32 %31, 0
  %33 = xor i1 %32, true
  %34 = xor i1 %33, true
  %35 = zext i1 %34 to i32
  %36 = sext i32 %35 to i64
  %37 = call i64 @llvm.expect.i64(i64 %36, i64 1)
  %38 = icmp ne i64 %37, 0
  br i1 %38, label %39, label %40

39:                                               ; preds = %27
  store i1 false, ptr %2, align 1
  br label %108

40:                                               ; preds = %27
  %41 = load ptr, ptr %3, align 8, !tbaa !4
  %42 = getelementptr inbounds nuw %struct._zend_generator, ptr %41, i32 0, i32 9
  %43 = getelementptr inbounds nuw %struct._zend_generator_node, ptr %42, i32 0, i32 1
  %44 = load i32, ptr %43, align 8, !tbaa !109
  %45 = icmp eq i32 %44, 1
  br i1 %45, label %46, label %52

46:                                               ; preds = %40
  %47 = load ptr, ptr %3, align 8, !tbaa !4
  %48 = getelementptr inbounds nuw %struct._zend_generator, ptr %47, i32 0, i32 9
  %49 = getelementptr inbounds nuw %struct._zend_generator_node, ptr %48, i32 0, i32 2
  %50 = load ptr, ptr %49, align 8, !tbaa !26
  %51 = call zeroext i1 @check_node_running_in_fiber(ptr noundef %50)
  store i1 %51, ptr %2, align 1
  br label %108

52:                                               ; preds = %40
  call void @llvm.lifetime.start.p0(i64 8, ptr %4) #11
  br label %53

53:                                               ; preds = %52
  call void @llvm.lifetime.start.p0(i64 8, ptr %5) #11
  %54 = load ptr, ptr %3, align 8, !tbaa !4
  %55 = getelementptr inbounds nuw %struct._zend_generator, ptr %54, i32 0, i32 9
  %56 = getelementptr inbounds nuw %struct._zend_generator_node, ptr %55, i32 0, i32 2
  %57 = load ptr, ptr %56, align 8, !tbaa !26
  store ptr %57, ptr %5, align 8, !tbaa !72
  call void @llvm.lifetime.start.p0(i64 4, ptr %6) #11
  %58 = load ptr, ptr %5, align 8, !tbaa !72
  %59 = getelementptr inbounds nuw %struct._zend_array, ptr %58, i32 0, i32 4
  %60 = load i32, ptr %59, align 8, !tbaa !110
  store i32 %60, ptr %6, align 4, !tbaa !32
  call void @llvm.lifetime.start.p0(i64 8, ptr %7) #11
  %61 = load ptr, ptr %5, align 8, !tbaa !72
  %62 = getelementptr inbounds nuw %struct._zend_array, ptr %61, i32 0, i32 1
  %63 = load i32, ptr %62, align 8, !tbaa !26
  %64 = xor i32 %63, -1
  %65 = and i32 %64, 4
  %66 = zext i32 %65 to i64
  %67 = mul i64 %66, 4
  %68 = add i64 16, %67
  store i64 %68, ptr %7, align 8, !tbaa !35
  call void @llvm.lifetime.start.p0(i64 8, ptr %8) #11
  %69 = load ptr, ptr %5, align 8, !tbaa !72
  %70 = getelementptr inbounds nuw %struct._zend_array, ptr %69, i32 0, i32 3
  %71 = load ptr, ptr %70, align 8, !tbaa !26
  store ptr %71, ptr %8, align 8, !tbaa !36
  br label %72

72:                                               ; preds = %95, %53
  %73 = load i32, ptr %6, align 4, !tbaa !32
  %74 = icmp ugt i32 %73, 0
  br i1 %74, label %75, label %101

75:                                               ; preds = %72
  %76 = load ptr, ptr %8, align 8, !tbaa !36
  %77 = call zeroext i8 @zval_get_type(ptr noundef %76)
  %78 = zext i8 %77 to i32
  %79 = icmp eq i32 %78, 0
  %80 = xor i1 %79, true
  %81 = xor i1 %80, true
  %82 = zext i1 %81 to i32
  %83 = sext i32 %82 to i64
  %84 = call i64 @llvm.expect.i64(i64 %83, i64 0)
  %85 = icmp ne i64 %84, 0
  br i1 %85, label %86, label %87

86:                                               ; preds = %75
  br label %95

87:                                               ; preds = %75
  %88 = load ptr, ptr %8, align 8, !tbaa !36
  %89 = getelementptr inbounds nuw %struct._zval_struct, ptr %88, i32 0, i32 0
  %90 = load ptr, ptr %89, align 8, !tbaa !26
  store ptr %90, ptr %4, align 8, !tbaa !4
  %91 = load ptr, ptr %4, align 8, !tbaa !4
  %92 = call zeroext i1 @check_node_running_in_fiber(ptr noundef %91)
  br i1 %92, label %93, label %94

93:                                               ; preds = %87
  store i1 true, ptr %2, align 1
  store i32 1, ptr %9, align 4
  br label %102

94:                                               ; preds = %87
  br label %95

95:                                               ; preds = %94, %86
  %96 = load ptr, ptr %8, align 8, !tbaa !36
  %97 = load i64, ptr %7, align 8, !tbaa !35
  %98 = getelementptr inbounds nuw i8, ptr %96, i64 %97
  store ptr %98, ptr %8, align 8, !tbaa !36
  %99 = load i32, ptr %6, align 4, !tbaa !32
  %100 = add i32 %99, -1
  store i32 %100, ptr %6, align 4, !tbaa !32
  br label %72

101:                                              ; preds = %72
  store i32 0, ptr %9, align 4
  br label %102

102:                                              ; preds = %101, %93
  call void @llvm.lifetime.end.p0(i64 8, ptr %8) #11
  call void @llvm.lifetime.end.p0(i64 8, ptr %7) #11
  call void @llvm.lifetime.end.p0(i64 4, ptr %6) #11
  call void @llvm.lifetime.end.p0(i64 8, ptr %5) #11
  %103 = load i32, ptr %9, align 4
  switch i32 %103, label %107 [
    i32 0, label %104
  ]

104:                                              ; preds = %102
  br label %105

105:                                              ; preds = %104
  br label %106

106:                                              ; preds = %105
  store i1 false, ptr %2, align 1
  store i32 1, ptr %9, align 4
  br label %107

107:                                              ; preds = %106, %102
  call void @llvm.lifetime.end.p0(i64 8, ptr %4) #11
  br label %108

108:                                              ; preds = %107, %46, %39, %26
  %109 = load i1, ptr %2, align 1
  ret i1 %109
}