; Function Attrs: inlinehint nofree nosync nounwind memory(read, inaccessiblemem: write) uwtable
define internal fastcc noundef zeroext i1 @check_node_running_in_fiber(ptr noundef readonly captures(none) %0) unnamed_addr #9 {
  %2 = getelementptr inbounds nuw i8, ptr %0, i64 56
  %3 = load ptr, ptr %2, align 8, !tbaa !56
  %4 = icmp ne ptr %3, null
  tail call void @llvm.assume(i1 %4)
  %5 = getelementptr inbounds nuw i8, ptr %0, i64 272
  %6 = load i8, ptr %5, align 8, !tbaa !99
  %7 = and i8 %6, 16
  %.not25 = icmp eq i8 %7, 0
  br i1 %.not25, label %.lr.ph, label %.critedge, !prof !162

.lr.ph:                                           ; preds = %1, %tailrecurse
  %.tr26 = phi ptr [ %11, %tailrecurse ], [ %0, %1 ]
  %8 = getelementptr inbounds nuw i8, ptr %.tr26, i64 160
  %9 = load i32, ptr %8, align 8, !tbaa !100
  switch i32 %9, label %18 [
    i32 0, label %.critedge
    i32 1, label %tailrecurse
  ], !prof !163

tailrecurse:                                      ; preds = %.lr.ph
  %10 = getelementptr inbounds nuw i8, ptr %.tr26, i64 168
  %11 = load ptr, ptr %10, align 8, !tbaa !24
  %12 = getelementptr inbounds nuw i8, ptr %11, i64 56
  %13 = load ptr, ptr %12, align 8, !tbaa !56
  %14 = icmp ne ptr %13, null
  tail call void @llvm.assume(i1 %14)
  %15 = getelementptr inbounds nuw i8, ptr %11, i64 272
  %16 = load i8, ptr %15, align 8, !tbaa !99
  %17 = and i8 %16, 16
  %.not = icmp eq i8 %17, 0
  br i1 %.not, label %.lr.ph, label %.critedge, !prof !164

18:                                               ; preds = %.lr.ph
  %19 = getelementptr inbounds nuw i8, ptr %.tr26, i64 168
  %20 = load ptr, ptr %19, align 8, !tbaa !24
  %21 = getelementptr inbounds nuw i8, ptr %20, i64 24
  %22 = load i32, ptr %21, align 8, !tbaa !101
  %.not21.not28 = icmp eq i32 %22, 0
  br i1 %.not21.not28, label %.critedge, label %.lr.ph31

.lr.ph31:                                         ; preds = %18
  %23 = getelementptr inbounds nuw i8, ptr %20, i64 16
  %24 = load ptr, ptr %23, align 8, !tbaa !24
  %25 = getelementptr inbounds nuw i8, ptr %20, i64 8
  %26 = load i32, ptr %25, align 8, !tbaa !24
  %27 = shl i32 %26, 2
  %28 = and i32 %27, 16
  %29 = xor i32 %28, 16
  %30 = zext nneg i32 %29 to i64
  br label %31

31:                                               ; preds = %.lr.ph31, %38
  %.01730 = phi ptr [ %24, %.lr.ph31 ], [ %40, %38 ]
  %.01929 = phi i32 [ %22, %.lr.ph31 ], [ %41, %38 ]
  %32 = getelementptr inbounds nuw i8, ptr %.01730, i64 8
  %33 = load i8, ptr %32, align 8, !tbaa !24
  %34 = icmp eq i8 %33, 0
  br i1 %34, label %38, label %35, !prof !26

35:                                               ; preds = %31
  %36 = load ptr, ptr %.01730, align 8, !tbaa !24
  %37 = tail call fastcc zeroext i1 @check_node_running_in_fiber(ptr noundef %36)
  br i1 %37, label %.critedge, label %38

38:                                               ; preds = %35, %31
  %39 = getelementptr inbounds nuw i8, ptr %.01730, i64 %30
  %40 = getelementptr inbounds nuw i8, ptr %39, i64 16
  %41 = add i32 %.01929, -1
  %.not21.not = icmp eq i32 %41, 0
  br i1 %.not21.not, label %.critedge, label %31

.critedge:                                        ; preds = %tailrecurse, %.lr.ph, %35, %38, %1, %18
  %.018 = phi i1 [ false, %18 ], [ true, %1 ], [ true, %35 ], [ false, %38 ], [ true, %tailrecurse ], [ false, %.lr.ph ]
  ret i1 %.018
}